target datalayout = "e-m:e-p270:32:32-p271:32:32-p272:64:64-i64:64-i128:128-f80:128-n8:16:32:64-S128"
target triple = "x86_64-pc-linux-gnu"

%struct.OSQPSolver = type { ptr, ptr, ptr, ptr }
%struct.OSQPWorkspace_ = type { ptr, ptr, ptr, ptr, ptr, ptr, ptr, ptr, ptr, ptr, ptr, ptr, ptr, ptr, ptr, ptr, ptr, ptr, ptr, ptr, ptr, ptr, ptr, ptr, ptr, ptr, double, double, double, ptr, i64, i64, i64, i64, ptr }
%struct.OSQPSettings = type { i64, i32, i64, i64, i64, i64, i64, i64, double, i64, double, double, i64, i64, double, i32, i64, i64, double, double, i64, double, double, double, double, i64, i64, double, double, i64 }

; Function Attrs: nounwind uwtable
define void @update_x(ptr noundef %0) #0 {
  %2 = alloca ptr, align 8
  %3 = alloca ptr, align 8
  %4 = alloca ptr, align 8
  store ptr %0, ptr %2, align 8
  %5 = load ptr, ptr %2, align 8
  %6 = getelementptr inbounds %struct.OSQPSolver, ptr %5, i32 0, i32 0
  %7 = load ptr, ptr %6, align 8
  store ptr %7, ptr %3, align 8
  %8 = load ptr, ptr %2, align 8
  %9 = getelementptr inbounds %struct.OSQPSolver, ptr %8, i32 0, i32 3
  %10 = load ptr, ptr %9, align 8
  store ptr %10, ptr %4, align 8
  %11 = load ptr, ptr %4, align 8
  %12 = getelementptr inbounds %struct.OSQPWorkspace_, ptr %11, i32 0, i32 6
  %13 = load ptr, ptr %12, align 8
  %14 = load ptr, ptr %3, align 8
  %15 = getelementptr inbounds %struct.OSQPSettings, ptr %14, i32 0, i32 11
  %16 = load double, ptr %15, align 8
  %17 = load ptr, ptr %4, align 8
  %18 = getelementptr inbounds %struct.OSQPWorkspace_, ptr %17, i32 0, i32 10
  %19 = load ptr, ptr %18, align 8
  %20 = load ptr, ptr %3, align 8
  %21 = getelementptr inbounds %struct.OSQPSettings, ptr %20, i32 0, i32 11
  %22 = load double, ptr %21, align 8
  %23 = fsub double 1.000000e+00, %22
  %24 = load ptr, ptr %4, align 8
  %25 = getelementptr inbounds %struct.OSQPWorkspace_, ptr %24, i32 0, i32 12
  %26 = load ptr, ptr %25, align 8
  call void @OSQPVectorf_add_scaled(ptr noundef %13, double noundef %16, ptr noundef %19, double noundef %23, ptr noundef %26)
  %27 = load ptr, ptr %4, align 8
  %28 = getelementptr inbounds %struct.OSQPWorkspace_, ptr %27, i32 0, i32 19
  %29 = load ptr, ptr %28, align 8
  %30 = load ptr, ptr %4, align 8
  %31 = getelementptr inbounds %struct.OSQPWorkspace_, ptr %30, i32 0, i32 6
  %32 = load ptr, ptr %31, align 8
  %33 = load ptr, ptr %4, align 8
  %34 = getelementptr inbounds %struct.OSQPWorkspace_, ptr %33, i32 0, i32 12
  %35 = load ptr, ptr %34, align 8
  call void @OSQPVectorf_minus(ptr noundef %29, ptr noundef %32, ptr noundef %35)
  ret void
}