; Function Attrs: nounwind uwtable
define void @update_x(ptr noundef readonly captures(none) %0) local_unnamed_addr #0 {
  %2 = load ptr, ptr %0, align 8
  %3 = getelementptr inbounds nuw i8, ptr %0, i64 24
  %4 = load ptr, ptr %3, align 8
  %5 = getelementptr inbounds nuw i8, ptr %4, i64 48
  %6 = load ptr, ptr %5, align 8
  %7 = getelementptr inbounds nuw i8, ptr %2, i64 88
  %8 = load double, ptr %7, align 8
  %9 = getelementptr inbounds nuw i8, ptr %4, i64 80
  %10 = load ptr, ptr %9, align 8
  %11 = fsub double 1.000000e+00, %8
  %12 = getelementptr inbounds nuw i8, ptr %4, i64 96
  %13 = load ptr, ptr %12, align 8
  tail call void @OSQPVectorf_add_scaled(ptr noundef %6, double noundef %8, ptr noundef %10, double noundef %11, ptr noundef %13) #9
  %14 = getelementptr inbounds nuw i8, ptr %4, i64 152
  %15 = load ptr, ptr %14, align 8
  %16 = load ptr, ptr %5, align 8
  %17 = load ptr, ptr %12, align 8
  tail call void @OSQPVectorf_minus(ptr noundef %15, ptr noundef %16, ptr noundef %17) #9
  ret void
}